; Function Attrs: mustprogress uwtable
define void @_ZN7rocksdb18WritePreparedTxnDB5WriteERKNS_12WriteOptionsEPNS_10WriteBatchE(ptr noalias sret(%"class.rocksdb::Status") align 8 %agg.result, ptr noundef nonnull align 8 dereferenceable(1352) %this, ptr noundef nonnull align 8 dereferenceable(24) %opts, ptr noundef %updates) unnamed_addr #2 align 2 {
entry:
  %skip_concurrency_control = getelementptr inbounds i8, ptr %this, i64 136
  %0 = load i8, ptr %skip_concurrency_control, align 8
  %1 = and i8 %0, 1
  %tobool.not = icmp eq i8 %1, 0
  br i1 %tobool.not, label %if.else, label %if.then

if.then:                                          ; preds = %entry
  tail call void @_ZN7rocksdb18WritePreparedTxnDB13WriteInternalERKNS_12WriteOptionsEPNS_10WriteBatchEmPNS_16WritePreparedTxnE(ptr sret(%"class.rocksdb::Status") align 8 %agg.result, ptr noundef nonnull align 8 dereferenceable(1352) %this, ptr noundef nonnull align 8 dereferenceable(24) %opts, ptr noundef %updates, i64 noundef 0, ptr noundef null)
  br label %return

if.else:                                          ; preds = %entry
  tail call void @_ZN7rocksdb24PessimisticTransactionDB27WriteWithConcurrencyControlERKNS_12WriteOptionsEPNS_10WriteBatchE(ptr sret(%"class.rocksdb::Status") align 8 %agg.result, ptr noundef nonnull align 8 dereferenceable(480) %this, ptr noundef nonnull align 8 dereferenceable(24) %opts, ptr noundef %updates)
  br label %return

return:                                           ; preds = %if.else, %if.then
  ret void
}